target datalayout = "e-m:e-p270:32:32-p271:32:32-p272:64:64-i64:64-i128:128-f80:128-n8:16:32:64-S128"
target triple = "x86_64-pc-linux-gnu"

%struct.ec_group_st = type { ptr, ptr, ptr, ptr, i32, i32, i32, i32, ptr, i64, ptr, [6 x i32], ptr, ptr, i32, ptr, ptr, ptr, ptr, i32, %union.anon.0, ptr, ptr }
%union.anon.0 = type { ptr }

; Function Attrs: nounwind uwtable
define internal i32 @ecp_nistz256_window_have_precompute_mult(ptr noundef %0) #0 {
  %2 = alloca i32, align 4
  %3 = alloca ptr, align 8
  %4 = alloca ptr, align 8
  %5 = alloca i32, align 4
  store ptr %0, ptr %3, align 8, !tbaa !18
  call void @llvm.lifetime.start.p0(i64 8, ptr %4) #6
  %6 = load ptr, ptr %3, align 8, !tbaa !18
  %7 = call ptr @EC_GROUP_get0_generator(ptr noundef %6)
  store ptr %7, ptr %4, align 8, !tbaa !19
  %8 = load ptr, ptr %4, align 8, !tbaa !19
  %9 = icmp ne ptr %8, null
  br i1 %9, label %10, label %15

10:                                               ; preds = %1
  %11 = load ptr, ptr %4, align 8, !tbaa !19
  %12 = call i32 @ecp_nistz256_is_affine_G(ptr noundef %11)
  %13 = icmp ne i32 %12, 0
  br i1 %13, label %14, label %15

14:                                               ; preds = %10
  store i32 1, ptr %2, align 4
  store i32 1, ptr %5, align 4
  br label %28

15:                                               ; preds = %10, %1
  %16 = load ptr, ptr %3, align 8, !tbaa !18
  %17 = getelementptr inbounds nuw %struct.ec_group_st, ptr %16, i32 0, i32 19
  %18 = load i32, ptr %17, align 8, !tbaa !57
  %19 = icmp eq i32 %18, 5
  br i1 %19, label %20, label %25

20:                                               ; preds = %15
  %21 = load ptr, ptr %3, align 8, !tbaa !18
  %22 = getelementptr inbounds nuw %struct.ec_group_st, ptr %21, i32 0, i32 20
  %23 = load ptr, ptr %22, align 8, !tbaa !35
  %24 = icmp ne ptr %23, null
  br label %25

25:                                               ; preds = %20, %15
  %26 = phi i1 [ false, %15 ], [ %24, %20 ]
  %27 = zext i1 %26 to i32
  store i32 %27, ptr %2, align 4
  store i32 1, ptr %5, align 4
  br label %28

28:                                               ; preds = %25, %14
  call void @llvm.lifetime.end.p0(i64 8, ptr %4) #6
  %29 = load i32, ptr %2, align 4
  ret i32 %29
}