; Function Attrs: nounwind uwtable
define internal range(i32 0, 2) i32 @ecp_nistz256_window_have_precompute_mult(ptr noundef %0) #2 {
  %2 = tail call ptr @EC_GROUP_get0_generator(ptr noundef %0) #7
  %.not = icmp eq ptr %2, null
  br i1 %.not, label %5, label %3

3:                                                ; preds = %1
  %4 = tail call fastcc i32 @ecp_nistz256_is_affine_G(ptr noundef %2)
  %.not6 = icmp eq i32 %4, 0
  br i1 %.not6, label %5, label %14

5:                                                ; preds = %3, %1
  %6 = getelementptr inbounds nuw i8, ptr %0, i64 152
  %7 = load i32, ptr %6, align 8, !tbaa !55
  %8 = icmp eq i32 %7, 5
  br i1 %8, label %9, label %14

9:                                                ; preds = %5
  %10 = getelementptr inbounds nuw i8, ptr %0, i64 160
  %11 = load ptr, ptr %10, align 8, !tbaa !26
  %12 = icmp ne ptr %11, null
  %13 = zext i1 %12 to i32
  br label %14

14:                                               ; preds = %5, %9, %3
  %.0 = phi i32 [ 1, %3 ], [ 0, %5 ], [ %13, %9 ]
  ret i32 %.0
}